target datalayout = "e-m:e-p270:32:32-p271:32:32-p272:64:64-i64:64-i128:128-f80:128-n8:16:32:64-S128"
target triple = "x86_64-pc-linux-gnu"

%class.dtPolyQuery = type { ptr }
%class.dtCollectPolysQuery = type <{ %class.dtPolyQuery, ptr, i32, i32, i8, [7 x i8] }>

@_ZTV11dtPolyQuery = unnamed_addr constant { [5 x ptr] } { [5 x ptr] [ptr null, ptr @_ZTI11dtPolyQuery, ptr @_ZN11dtPolyQueryD1Ev, ptr @_ZN11dtPolyQueryD0Ev, ptr @__cxa_pure_virtual] }, align 8
@_ZTV19dtCollectPolysQuery = unnamed_addr constant { [5 x ptr] } { [5 x ptr] [ptr null, ptr @_ZTI19dtCollectPolysQuery, ptr @_ZN19dtCollectPolysQueryD1Ev, ptr @_ZN19dtCollectPolysQueryD0Ev, ptr @_ZN19dtCollectPolysQuery7processEPK10dtMeshTilePP6dtPolyPji] }, align 8
@_ZN19dtCollectPolysQueryD1Ev = unnamed_addr alias void (ptr), ptr @_ZN19dtCollectPolysQueryD2Ev

; Function Attrs: mustprogress nounwind uwtable
define linkonce_odr void @_ZN11dtPolyQueryC2Ev(ptr noundef nonnull align 8 dereferenceable(8) %0) unnamed_addr #0 comdat align 2 {
  %2 = alloca ptr, align 8
  store ptr %0, ptr %2, align 8
  %3 = load ptr, ptr %2, align 8
  store ptr getelementptr inbounds ({ [5 x ptr] }, ptr @_ZTV11dtPolyQuery, i32 0, i32 0, i32 2), ptr %3, align 8
  ret void
}

; Function Attrs: mustprogress nounwind uwtable
define linkonce_odr noundef zeroext i1 @_ZNK19dtCollectPolysQuery10overflowedEv(ptr noundef nonnull align 8 dereferenceable(25) %0) #0 comdat align 2 {
  %2 = alloca ptr, align 8
  store ptr %0, ptr %2, align 8
  %3 = load ptr, ptr %2, align 8
  %4 = getelementptr inbounds %class.dtCollectPolysQuery, ptr %3, i32 0, i32 4
  %5 = load i8, ptr %4, align 8
  %6 = trunc i8 %5 to i1
  ret i1 %6
}

; Function Attrs: mustprogress nounwind uwtable
define linkonce_odr noundef i32 @_ZNK19dtCollectPolysQuery12numCollectedEv(ptr noundef nonnull align 8 dereferenceable(25) %0) #0 comdat align 2 {
  %2 = alloca ptr, align 8
  store ptr %0, ptr %2, align 8
  %3 = load ptr, ptr %2, align 8
  %4 = getelementptr inbounds %class.dtCollectPolysQuery, ptr %3, i32 0, i32 3
  %5 = load i32, ptr %4, align 4
  ret i32 %5
}

; Function Attrs: mustprogress nounwind uwtable
define linkonce_odr noundef zeroext i1 @_Z14dtStatusFailedj(i32 noundef %0) #0 comdat {
  %2 = alloca i32, align 4
  store i32 %0, ptr %2, align 4
  %3 = load i32, ptr %2, align 4
  %4 = and i32 %3, -2147483648
  %5 = icmp ne i32 %4, 0
  ret i1 %5
}

; Function Attrs: mustprogress nounwind uwtable
define linkonce_odr void @_ZN19dtCollectPolysQueryC2EPji(ptr noundef nonnull align 8 dereferenceable(25) %0, ptr noundef %1, i32 noundef %2) unnamed_addr #0 comdat align 2 {
  %4 = alloca ptr, align 8
  %5 = alloca ptr, align 8
  %6 = alloca i32, align 4
  store ptr %0, ptr %4, align 8
  store ptr %1, ptr %5, align 8
  store i32 %2, ptr %6, align 4
  %7 = load ptr, ptr %4, align 8
  call void @_ZN11dtPolyQueryC2Ev(ptr noundef nonnull align 8 dereferenceable(8) %7) #9
  store ptr getelementptr inbounds ({ [5 x ptr] }, ptr @_ZTV19dtCollectPolysQuery, i32 0, i32 0, i32 2), ptr %7, align 8
  %8 = getelementptr inbounds %class.dtCollectPolysQuery, ptr %7, i32 0, i32 1
  %9 = load ptr, ptr %5, align 8
  store ptr %9, ptr %8, align 8
  %10 = getelementptr inbounds %class.dtCollectPolysQuery, ptr %7, i32 0, i32 2
  %11 = load i32, ptr %6, align 4
  store i32 %11, ptr %10, align 8
  %12 = getelementptr inbounds %class.dtCollectPolysQuery, ptr %7, i32 0, i32 3
  store i32 0, ptr %12, align 4
  %13 = getelementptr inbounds %class.dtCollectPolysQuery, ptr %7, i32 0, i32 4
  store i8 0, ptr %13, align 8
  ret void
}

; Function Attrs: mustprogress uwtable
define noundef i32 @_ZNK14dtNavMeshQuery13queryPolygonsEPKfS1_PK13dtQueryFilterPjPii(ptr noundef nonnull align 8 dereferenceable(104) %0, ptr noundef %1, ptr noundef %2, ptr noundef %3, ptr noundef %4, ptr noundef %5, i32 noundef %6) #1 align 2 personality ptr @__gxx_personality_v0 {
  %8 = alloca i32, align 4
  %9 = alloca ptr, align 8
  %10 = alloca ptr, align 8
  %11 = alloca ptr, align 8
  %12 = alloca ptr, align 8
  %13 = alloca ptr, align 8
  %14 = alloca ptr, align 8
  %15 = alloca i32, align 4
  %16 = alloca %class.dtCollectPolysQuery, align 8
  %17 = alloca i32, align 4
  %18 = alloca ptr, align 8
  %19 = alloca i32, align 4
  %20 = alloca i32, align 4
  store ptr %0, ptr %9, align 8
  store ptr %1, ptr %10, align 8
  store ptr %2, ptr %11, align 8
  store ptr %3, ptr %12, align 8
  store ptr %4, ptr %13, align 8
  store ptr %5, ptr %14, align 8
  store i32 %6, ptr %15, align 4
  %21 = load ptr, ptr %9, align 8
  %22 = load ptr, ptr %13, align 8
  %23 = icmp ne ptr %22, null
  br i1 %23, label %24, label %30

24:                                               ; preds = %7
  %25 = load ptr, ptr %14, align 8
  %26 = icmp ne ptr %25, null
  br i1 %26, label %27, label %30

27:                                               ; preds = %24
  %28 = load i32, ptr %15, align 4
  %29 = icmp slt i32 %28, 0
  br i1 %29, label %30, label %31

30:                                               ; preds = %27, %24, %7
  store i32 -2147483640, ptr %8, align 4
  br label %56

31:                                               ; preds = %27
  %32 = load ptr, ptr %13, align 8
  %33 = load i32, ptr %15, align 4
  call void @_ZN19dtCollectPolysQueryC2EPji(ptr noundef nonnull align 8 dereferenceable(25) %16, ptr noundef %32, i32 noundef %33)
  %34 = load ptr, ptr %10, align 8
  %35 = load ptr, ptr %11, align 8
  %36 = load ptr, ptr %12, align 8
  %37 = invoke noundef i32 @_ZNK14dtNavMeshQuery13queryPolygonsEPKfS1_PK13dtQueryFilterP11dtPolyQuery(ptr noundef nonnull align 8 dereferenceable(104) %21, ptr noundef %34, ptr noundef %35, ptr noundef %36, ptr noundef %16)
          to label %38 unwind label %44

38:                                               ; preds = %31
  store i32 %37, ptr %17, align 4
  %39 = load i32, ptr %17, align 4
  %40 = invoke noundef zeroext i1 @_Z14dtStatusFailedj(i32 noundef %39)
          to label %41 unwind label %44

41:                                               ; preds = %38
  br i1 %40, label %42, label %48

42:                                               ; preds = %41
  %43 = load i32, ptr %17, align 4
  store i32 %43, ptr %8, align 4
  store i32 1, ptr %20, align 4
  br label %55

44:                                               ; preds = %50, %48, %38, %31
  %45 = landingpad { ptr, i32 }
          cleanup
  %46 = extractvalue { ptr, i32 } %45, 0
  store ptr %46, ptr %18, align 8
  %47 = extractvalue { ptr, i32 } %45, 1
  store i32 %47, ptr %19, align 4
  call void @_ZN19dtCollectPolysQueryD1Ev(ptr noundef nonnull align 8 dereferenceable(25) %16) #9
  br label %58

48:                                               ; preds = %41
  %49 = invoke noundef i32 @_ZNK19dtCollectPolysQuery12numCollectedEv(ptr noundef nonnull align 8 dereferenceable(25) %16)
          to label %50 unwind label %44

50:                                               ; preds = %48
  %51 = load ptr, ptr %14, align 8
  store i32 %49, ptr %51, align 4
  %52 = invoke noundef zeroext i1 @_ZNK19dtCollectPolysQuery10overflowedEv(ptr noundef nonnull align 8 dereferenceable(25) %16)
          to label %53 unwind label %44

53:                                               ; preds = %50
  %54 = select i1 %52, i32 1073741840, i32 1073741824
  store i32 %54, ptr %8, align 4
  store i32 1, ptr %20, align 4
  br label %55

55:                                               ; preds = %53, %42
  call void @_ZN19dtCollectPolysQueryD1Ev(ptr noundef nonnull align 8 dereferenceable(25) %16) #9
  br label %56

56:                                               ; preds = %55, %30
  %57 = load i32, ptr %8, align 4
  ret i32 %57

58:                                               ; preds = %44
  %59 = load ptr, ptr %18, align 8
  %60 = load i32, ptr %19, align 4
  %61 = insertvalue { ptr, i32 } poison, ptr %59, 0
  %62 = insertvalue { ptr, i32 } %61, i32 %60, 1
  resume { ptr, i32 } %62
}