; Function Attrs: mustprogress uwtable
define noundef i32 @_ZNK14dtNavMeshQuery13queryPolygonsEPKfS1_PK13dtQueryFilterPjPii(ptr nocapture noundef nonnull readonly align 8 dereferenceable(104) %0, ptr noundef %1, ptr noundef %2, ptr noundef %3, ptr noundef %4, ptr noundef writeonly %5, i32 noundef %6) local_unnamed_addr #1 align 2 personality ptr @__gxx_personality_v0 {
  %8 = alloca %class.dtCollectPolysQuery, align 8
  %9 = icmp eq ptr %4, null
  %10 = icmp eq ptr %5, null
  %or.cond.not19 = or i1 %9, %10
  %11 = icmp slt i32 %6, 0
  %or.cond3 = or i1 %or.cond.not19, %11
  br i1 %or.cond3, label %28, label %12

12:                                               ; preds = %7
  store ptr getelementptr inbounds ({ [5 x ptr] }, ptr @_ZTV19dtCollectPolysQuery, i64 0, i32 0, i64 2), ptr %8, align 8
  %13 = getelementptr inbounds i8, ptr %8, i64 8
  store ptr %4, ptr %13, align 8
  %14 = getelementptr inbounds i8, ptr %8, i64 16
  store i32 %6, ptr %14, align 8
  %15 = getelementptr inbounds i8, ptr %8, i64 20
  store i32 0, ptr %15, align 4
  %16 = getelementptr inbounds i8, ptr %8, i64 24
  store i8 0, ptr %16, align 8
  %17 = invoke noundef i32 @_ZNK14dtNavMeshQuery13queryPolygonsEPKfS1_PK13dtQueryFilterP11dtPolyQuery(ptr noundef nonnull align 8 dereferenceable(104) %0, ptr noundef %1, ptr noundef %2, ptr noundef %3, ptr noundef nonnull %8)
          to label %18 unwind label %20, !range !12

18:                                               ; preds = %12
  %19 = icmp slt i32 %17, 0
  br i1 %19, label %27, label %22

20:                                               ; preds = %12
  %21 = landingpad { ptr, i32 }
          cleanup
  call void @_ZN19dtCollectPolysQueryD1Ev(ptr noundef nonnull align 8 dereferenceable(25) %8) #20
  resume { ptr, i32 } %21

22:                                               ; preds = %18
  %23 = load i32, ptr %15, align 4
  store i32 %23, ptr %5, align 4
  %24 = load i8, ptr %16, align 8
  %25 = and i8 %24, 1
  %.not = icmp eq i8 %25, 0
  %26 = select i1 %.not, i32 1073741824, i32 1073741840
  br label %27

27:                                               ; preds = %18, %22
  %.0 = phi i32 [ %26, %22 ], [ %17, %18 ]
  call void @_ZN19dtCollectPolysQueryD1Ev(ptr noundef nonnull align 8 dereferenceable(25) %8) #20
  br label %28

28:                                               ; preds = %7, %27
  %.1 = phi i32 [ %.0, %27 ], [ -2147483640, %7 ]
  ret i32 %.1
}